target datalayout = "e-m:e-p270:32:32-p271:32:32-p272:64:64-i64:64-i128:128-f80:128-n8:16:32:64-S128"
target triple = "x86_64-pc-linux-gnu"

%struct.uv_loop_s = type { ptr, i32, %struct.uv__queue, %union.anon, ptr, i32, i64, i32, %struct.uv__queue, %struct.uv__queue, ptr, i32, i32, %struct.uv__queue, %union.pthread_mutex_t, %struct.uv_async_s, %union.pthread_rwlock_t, ptr, %struct.uv__queue, %struct.uv__queue, %struct.uv__queue, %struct.uv__queue, %struct.uv__queue, ptr, %struct.uv__io_s, i32, %struct.anon, i64, i64, [2 x i32], %struct.uv__io_s, %struct.uv_signal_s, i32, %struct.uv__io_s, ptr, i32 }
%union.anon = type { ptr }
%union.pthread_mutex_t = type { %struct.__pthread_mutex_s }
%struct.__pthread_mutex_s = type { i32, i32, i32, i32, i32, i16, i16, %struct.__pthread_internal_list }
%struct.__pthread_internal_list = type { ptr, ptr }
%struct.uv_async_s = type { ptr, ptr, i32, ptr, %struct.uv__queue, %union.anon.0, ptr, i32, ptr, %struct.uv__queue, i32 }
%union.anon.0 = type { [4 x ptr] }
%union.pthread_rwlock_t = type { %struct.__pthread_rwlock_arch_t }
%struct.__pthread_rwlock_arch_t = type { i32, i32, i32, i32, i32, i32, i32, i32, i8, [7 x i8], i64, i32 }
%struct.uv__queue = type { ptr, ptr }
%struct.anon = type { ptr, i32 }
%struct.uv_signal_s = type { ptr, ptr, i32, ptr, %struct.uv__queue, %union.anon.1, ptr, i32, ptr, i32, %struct.anon.2, i32, i32 }
%union.anon.1 = type { [4 x ptr] }
%struct.anon.2 = type { ptr, ptr, ptr, i32 }
%struct.uv__io_s = type { ptr, %struct.uv__queue, %struct.uv__queue, i32, i32, i32 }
%struct.uv__loop_internal_fields_s = type { i32, %struct.uv__loop_metrics_s, i32, %struct.uv__iou, %struct.uv__iou, ptr }
%struct.uv__loop_metrics_s = type { %struct.uv_metrics_s, i64, i64, %union.pthread_mutex_t }
%struct.uv_metrics_s = type { i64, i64, i64, [13 x ptr] }
%struct.uv__iou = type { ptr, ptr, i32, ptr, ptr, ptr, i32, ptr, ptr, ptr, i64, i64, i64, i64, i32, i32 }
%struct.uv_fs_s = type { ptr, i32, [6 x ptr], i32, ptr, ptr, i64, ptr, ptr, %struct.uv_stat_t, ptr, i32, i32, i32, i32, ptr, i64, i32, i32, double, double, %struct.uv__work, [4 x %struct.uv_buf_t] }
%struct.uv_stat_t = type { i64, i64, i64, i64, i64, i64, i64, i64, i64, i64, i64, i64, %struct.uv_timespec_t, %struct.uv_timespec_t, %struct.uv_timespec_t, %struct.uv_timespec_t }
%struct.uv_timespec_t = type { i64, i64 }
%struct.uv__work = type { ptr, ptr, ptr, %struct.uv__queue }
%struct.uv_buf_t = type { ptr, i64 }
%struct.uv__io_uring_sqe = type { i8, i8, i16, i32, %union.anon.3, %union.anon.4, i32, %union.anon.5, i64, %union.anon.6 }
%union.anon.3 = type { i64 }
%union.anon.4 = type { i64 }
%union.anon.5 = type { i32 }
%union.anon.6 = type { [3 x i64] }

@.str.25 = private unnamed_addr constant [30 x i8] c"libuv: io_uring_enter(wakeup)\00", align 1

; Function Attrs: nounwind uwtable
define hidden i32 @uv__io_uring_enter(i32 noundef %0, i32 noundef %1, i32 noundef %2, i32 noundef %3) #0 {
  %5 = alloca i32, align 4
  %6 = alloca i32, align 4
  %7 = alloca i32, align 4
  %8 = alloca i32, align 4
  store i32 %0, ptr %5, align 4
  store i32 %1, ptr %6, align 4
  store i32 %2, ptr %7, align 4
  store i32 %3, ptr %8, align 4
  %9 = load i32, ptr %5, align 4
  %10 = load i32, ptr %6, align 4
  %11 = load i32, ptr %7, align 4
  %12 = load i32, ptr %8, align 4
  %13 = call i64 (i64, ...) @syscall(i64 noundef 426, i32 noundef %9, i32 noundef %10, i32 noundef %11, i32 noundef %12, ptr noundef null, i64 noundef 0) #12
  %14 = trunc i64 %13 to i32
  ret i32 %14
}

; Function Attrs: nounwind uwtable
define internal void @uv__iou_submit(ptr noundef %0) #0 {
  %2 = alloca ptr, align 8
  %3 = alloca i32, align 4
  %4 = alloca i32, align 4
  %5 = alloca i32, align 4
  store ptr %0, ptr %2, align 8
  call void @llvm.lifetime.start.p0(i64 4, ptr %3) #12
  %6 = load ptr, ptr %2, align 8
  %7 = getelementptr inbounds nuw %struct.uv__iou, ptr %6, i32 0, i32 1
  %8 = load ptr, ptr %7, align 8
  %9 = load ptr, ptr %2, align 8
  %10 = getelementptr inbounds nuw %struct.uv__iou, ptr %9, i32 0, i32 1
  %11 = load ptr, ptr %10, align 8
  %12 = load i32, ptr %11, align 4
  %13 = add i32 %12, 1
  store i32 %13, ptr %4, align 4
  %14 = load i32, ptr %4, align 4
  store atomic i32 %14, ptr %8 release, align 4
  %15 = load ptr, ptr %2, align 8
  %16 = getelementptr inbounds nuw %struct.uv__iou, ptr %15, i32 0, i32 3
  %17 = load ptr, ptr %16, align 8
  %18 = load atomic i32, ptr %17 acquire, align 4
  store i32 %18, ptr %5, align 4
  %19 = load i32, ptr %5, align 4
  store i32 %19, ptr %3, align 4
  %20 = load i32, ptr %3, align 4
  %21 = and i32 %20, 1
  %22 = icmp ne i32 %21, 0
  br i1 %22, label %23, label %36

23:                                               ; preds = %1
  %24 = load ptr, ptr %2, align 8
  %25 = getelementptr inbounds nuw %struct.uv__iou, ptr %24, i32 0, i32 14
  %26 = load i32, ptr %25, align 8
  %27 = call i32 @uv__io_uring_enter(i32 noundef %26, i32 noundef 0, i32 noundef 0, i32 noundef 2)
  %28 = icmp ne i32 %27, 0
  br i1 %28, label %29, label %35

29:                                               ; preds = %23
  %30 = call ptr @__errno_location() #14
  %31 = load i32, ptr %30, align 4
  %32 = icmp ne i32 %31, 130
  br i1 %32, label %33, label %34

33:                                               ; preds = %29
  call void @perror(ptr noundef @.str.25)
  br label %34

34:                                               ; preds = %33, %29
  br label %35

35:                                               ; preds = %34, %23
  br label %36

36:                                               ; preds = %35, %1
  call void @llvm.lifetime.end.p0(i64 4, ptr %3) #12
  ret void
}

; Function Attrs: nounwind uwtable
define hidden i32 @uv__iou_fs_unlink(ptr noundef %0, ptr noundef %1) #0 {
  %3 = alloca i32, align 4
  %4 = alloca ptr, align 8
  %5 = alloca ptr, align 8
  %6 = alloca ptr, align 8
  %7 = alloca ptr, align 8
  %8 = alloca i32, align 4
  store ptr %0, ptr %4, align 8
  store ptr %1, ptr %5, align 8
  call void @llvm.lifetime.start.p0(i64 8, ptr %6) #12
  call void @llvm.lifetime.start.p0(i64 8, ptr %7) #12
  %9 = load ptr, ptr %4, align 8
  %10 = getelementptr inbounds nuw %struct.uv_loop_s, ptr %9, i32 0, i32 4
  %11 = load ptr, ptr %10, align 8
  %12 = getelementptr inbounds nuw %struct.uv__loop_internal_fields_s, ptr %11, i32 0, i32 4
  store ptr %12, ptr %7, align 8
  %13 = load ptr, ptr %7, align 8
  %14 = load ptr, ptr %4, align 8
  %15 = load ptr, ptr %5, align 8
  %16 = call ptr @uv__iou_get_sqe(ptr noundef %13, ptr noundef %14, ptr noundef %15)
  store ptr %16, ptr %6, align 8
  %17 = load ptr, ptr %6, align 8
  %18 = icmp eq ptr %17, null
  br i1 %18, label %19, label %20

19:                                               ; preds = %2
  store i32 0, ptr %3, align 4
  store i32 1, ptr %8, align 4
  br label %32

20:                                               ; preds = %2
  %21 = load ptr, ptr %5, align 8
  %22 = getelementptr inbounds nuw %struct.uv_fs_s, ptr %21, i32 0, i32 8
  %23 = load ptr, ptr %22, align 8
  %24 = ptrtoint ptr %23 to i64
  %25 = load ptr, ptr %6, align 8
  %26 = getelementptr inbounds nuw %struct.uv__io_uring_sqe, ptr %25, i32 0, i32 5
  store i64 %24, ptr %26, align 8
  %27 = load ptr, ptr %6, align 8
  %28 = getelementptr inbounds nuw %struct.uv__io_uring_sqe, ptr %27, i32 0, i32 3
  store i32 -100, ptr %28, align 4
  %29 = load ptr, ptr %6, align 8
  %30 = getelementptr inbounds nuw %struct.uv__io_uring_sqe, ptr %29, i32 0, i32 0
  store i8 36, ptr %30, align 8
  %31 = load ptr, ptr %7, align 8
  call void @uv__iou_submit(ptr noundef %31)
  store i32 1, ptr %3, align 4
  store i32 1, ptr %8, align 4
  br label %32

32:                                               ; preds = %20, %19
  call void @llvm.lifetime.end.p0(i64 8, ptr %7) #12
  call void @llvm.lifetime.end.p0(i64 8, ptr %6) #12
  %33 = load i32, ptr %3, align 4
  ret i32 %33
}