; Function Attrs: nounwind uwtable
define hidden range(i32 0, 2) i32 @uv__iou_fs_unlink(ptr noundef %0, ptr noundef %1) local_unnamed_addr #0 {
  %3 = getelementptr inbounds nuw i8, ptr %0, i64 40
  %4 = load ptr, ptr %3, align 8
  %5 = getelementptr inbounds nuw i8, ptr %4, i64 320
  %6 = tail call fastcc ptr @uv__iou_get_sqe(ptr noundef nonnull %5, ptr noundef %0, ptr noundef %1)
  %7 = icmp eq ptr %6, null
  br i1 %7, label %uv__iou_submit.exit, label %8

8:                                                ; preds = %2
  %9 = getelementptr inbounds nuw i8, ptr %1, i64 104
  %10 = load ptr, ptr %9, align 8
  %11 = ptrtoint ptr %10 to i64
  %12 = getelementptr inbounds nuw i8, ptr %6, i64 16
  store i64 %11, ptr %12, align 8
  %13 = getelementptr inbounds nuw i8, ptr %6, i64 4
  store i32 -100, ptr %13, align 4
  store i8 36, ptr %6, align 8
  %14 = getelementptr inbounds nuw i8, ptr %4, i64 328
  %15 = load ptr, ptr %14, align 8
  %16 = load i32, ptr %15, align 4
  %17 = add i32 %16, 1
  store atomic i32 %17, ptr %15 release, align 4
  %18 = getelementptr inbounds nuw i8, ptr %4, i64 344
  %19 = load ptr, ptr %18, align 8
  %20 = load atomic i32, ptr %19 acquire, align 4
  %21 = and i32 %20, 1
  %.not.i = icmp eq i32 %21, 0
  br i1 %.not.i, label %uv__iou_submit.exit, label %22

22:                                               ; preds = %8
  %23 = getelementptr inbounds nuw i8, ptr %4, i64 432
  %24 = load i32, ptr %23, align 8
  %25 = tail call i64 (i64, ...) @syscall(i64 noundef 426, i32 noundef %24, i32 noundef 0, i32 noundef 0, i32 noundef 2, ptr noundef null, i64 noundef 0) #17
  %26 = and i64 %25, 4294967295
  %.not6.i = icmp eq i64 %26, 0
  br i1 %.not6.i, label %uv__iou_submit.exit, label %27

27:                                               ; preds = %22
  %28 = tail call ptr @__errno_location() #19
  %29 = load i32, ptr %28, align 4
  %.not7.i = icmp eq i32 %29, 130
  br i1 %.not7.i, label %uv__iou_submit.exit, label %30

30:                                               ; preds = %27
  tail call void @perror(ptr noundef nonnull @.str.25) #21
  br label %uv__iou_submit.exit

uv__iou_submit.exit:                              ; preds = %30, %27, %22, %8, %2
  %.0 = phi i32 [ 0, %2 ], [ 1, %8 ], [ 1, %22 ], [ 1, %27 ], [ 1, %30 ]
  ret i32 %.0
}